; Function Attrs: nounwind uwtable
define dso_local ptr @rbt_iterate(ptr noundef %0) local_unnamed_addr #0 {
  %2 = getelementptr inbounds nuw i8, ptr %0, i64 24
  %3 = load i8, ptr %2, align 8, !range !15, !noundef !16
  %4 = trunc nuw i8 %3 to i1
  br i1 %4, label %9, label %5

5:                                                ; preds = %1
  %6 = getelementptr inbounds nuw i8, ptr %0, i64 8
  %7 = load ptr, ptr %6, align 8
  %8 = tail call ptr %7(ptr noundef nonnull %0) #7
  br label %9

9:                                                ; preds = %1, %5
  %.0 = phi ptr [ %8, %5 ], [ null, %1 ]
  ret ptr %.0
}